; Function Attrs: mustprogress uwtable
define noundef zeroext i1 @_ZNK13sentencepiece17SentencePieceText13IsInitializedEv(ptr noundef nonnull align 8 dereferenceable(88) %0) unnamed_addr #3 align 2 personality ptr @__gxx_personality_v0 {
  %2 = getelementptr inbounds nuw i8, ptr %0, i64 16
  %3 = tail call noundef zeroext i1 @_ZNK6google8protobuf8internal12ExtensionSet13IsInitializedEv(ptr noundef nonnull align 8 dereferenceable(24) %2)
  br i1 %3, label %4, label %_ZN6google8protobuf8internal17AllAreInitializedIN13sentencepiece31SentencePieceText_SentencePieceEEEbRKNS0_16RepeatedPtrFieldIT_EE.exit

4:                                                ; preds = %1
  %5 = getelementptr inbounds nuw i8, ptr %0, i64 56
  %6 = load i32, ptr %5, align 8, !tbaa !76
  %7 = getelementptr inbounds nuw i8, ptr %0, i64 64
  %8 = zext i32 %6 to i64
  br label %9

9:                                                ; preds = %12, %4
  %indvars.iv.i = phi i64 [ %13, %12 ], [ %8, %4 ]
  %10 = trunc nuw i64 %indvars.iv.i to i32
  %11 = icmp slt i32 %10, 1
  br i1 %11, label %_ZN6google8protobuf8internal17AllAreInitializedIN13sentencepiece31SentencePieceText_SentencePieceEEEbRKNS0_16RepeatedPtrFieldIT_EE.exit, label %12

12:                                               ; preds = %9
  %13 = add nsw i64 %indvars.iv.i, -1
  %14 = load ptr, ptr %7, align 8, !tbaa !71
  %15 = getelementptr inbounds nuw i8, ptr %14, i64 8
  %16 = getelementptr inbounds nuw [268435454 x ptr], ptr %15, i64 0, i64 %13
  %17 = load ptr, ptr %16, align 8, !tbaa !67
  %18 = getelementptr inbounds nuw i8, ptr %17, i64 16
  %19 = tail call noundef zeroext i1 @_ZNK6google8protobuf8internal12ExtensionSet13IsInitializedEv(ptr noundef nonnull align 8 dereferenceable(24) %18)
  br i1 %19, label %9, label %_ZN6google8protobuf8internal17AllAreInitializedIN13sentencepiece31SentencePieceText_SentencePieceEEEbRKNS0_16RepeatedPtrFieldIT_EE.exit, !llvm.loop !84

_ZN6google8protobuf8internal17AllAreInitializedIN13sentencepiece31SentencePieceText_SentencePieceEEEbRKNS0_16RepeatedPtrFieldIT_EE.exit: ; preds = %12, %9, %1
  %.0 = phi i1 [ false, %1 ], [ %11, %9 ], [ %11, %12 ]
  ret i1 %.0
}